; Function Attrs: mustprogress uwtable
define internal fastcc void @"_ZZ22Z3_simplifier_and_thenEN3$_0C2ERKS_"(ptr noundef nonnull align 8 dereferenceable(64) %this, ptr noundef nonnull align 8 dereferenceable(64) %0) unnamed_addr #3 align 2 personality ptr @__gxx_personality_v0 {
entry:
  %_M_manager.i.i = getelementptr inbounds i8, ptr %this, i64 16
  %_M_invoker.i = getelementptr inbounds i8, ptr %this, i64 24
  %_M_manager.i.i.i = getelementptr inbounds i8, ptr %0, i64 16
  tail call void @llvm.memset.p0.i64(ptr noundef nonnull align 8 dereferenceable(32) %this, i8 0, i64 32, i1 false)
  %1 = load ptr, ptr %_M_manager.i.i.i, align 8
  %tobool.not.i.i.not.i = icmp eq ptr %1, null
  br i1 %tobool.not.i.i.not.i, label %_ZNSt8functionIFP25dependent_expr_simplifierR11ast_managerRK10params_refR20dependent_expr_stateEEC2ERKSA_.exit, label %if.then.i

if.then.i:                                        ; preds = %entry
  %call3.i = invoke noundef zeroext i1 %1(ptr noundef nonnull align 8 dereferenceable(16) %this, ptr noundef nonnull align 8 dereferenceable(16) %0, i32 noundef 2)
          to label %invoke.cont.i unwind label %lpad.i

invoke.cont.i:                                    ; preds = %if.then.i
  %_M_invoker4.i = getelementptr inbounds i8, ptr %0, i64 24
  %2 = load ptr, ptr %_M_invoker4.i, align 8
  store ptr %2, ptr %_M_invoker.i, align 8
  %3 = load ptr, ptr %_M_manager.i.i.i, align 8
  store ptr %3, ptr %_M_manager.i.i, align 8
  br label %_ZNSt8functionIFP25dependent_expr_simplifierR11ast_managerRK10params_refR20dependent_expr_stateEEC2ERKSA_.exit

lpad.i:                                           ; preds = %if.then.i
  %4 = landingpad { ptr, i32 }
          cleanup
  %5 = load ptr, ptr %_M_manager.i.i, align 8
  %tobool.not.i.i = icmp eq ptr %5, null
  br i1 %tobool.not.i.i, label %common.resume, label %if.then.i.i

if.then.i.i:                                      ; preds = %lpad.i
  %call.i.i = invoke noundef zeroext i1 %5(ptr noundef nonnull align 8 dereferenceable(16) %this, ptr noundef nonnull align 8 dereferenceable(16) %this, i32 noundef 3)
          to label %common.resume unwind label %terminate.lpad.i.i

terminate.lpad.i.i:                               ; preds = %if.then.i.i
  %6 = landingpad { ptr, i32 }
          catch ptr null
  %7 = extractvalue { ptr, i32 } %6, 0
  tail call void @__clang_call_terminate(ptr %7) #20
  unreachable

common.resume:                                    ; preds = %if.then.i.i19, %lpad.body, %lpad.i, %if.then.i.i
  %common.resume.op = phi { ptr, i32 } [ %4, %if.then.i.i ], [ %4, %lpad.i ], [ %13, %lpad.body ], [ %13, %if.then.i.i19 ]
  resume { ptr, i32 } %common.resume.op

_ZNSt8functionIFP25dependent_expr_simplifierR11ast_managerRK10params_refR20dependent_expr_stateEEC2ERKSA_.exit: ; preds = %entry, %invoke.cont.i
  %8 = getelementptr inbounds i8, ptr %this, i64 32
  %_M_manager.i.i2 = getelementptr inbounds i8, ptr %this, i64 48
  %_M_invoker.i3 = getelementptr inbounds i8, ptr %this, i64 56
  %_M_manager.i.i.i4 = getelementptr inbounds i8, ptr %0, i64 48
  tail call void @llvm.memset.p0.i64(ptr noundef nonnull align 8 dereferenceable(32) %8, i8 0, i64 32, i1 false)
  %9 = load ptr, ptr %_M_manager.i.i.i4, align 8
  %tobool.not.i.i.not.i5 = icmp eq ptr %9, null
  br i1 %tobool.not.i.i.not.i5, label %invoke.cont, label %if.then.i6

if.then.i6:                                       ; preds = %_ZNSt8functionIFP25dependent_expr_simplifierR11ast_managerRK10params_refR20dependent_expr_stateEEC2ERKSA_.exit
  %10 = getelementptr inbounds i8, ptr %0, i64 32
  %call3.i7 = invoke noundef zeroext i1 %9(ptr noundef nonnull align 8 dereferenceable(16) %8, ptr noundef nonnull align 8 dereferenceable(16) %10, i32 noundef 2)
          to label %invoke.cont.i14 unwind label %lpad.i8

invoke.cont.i14:                                  ; preds = %if.then.i6
  %_M_invoker4.i15 = getelementptr inbounds i8, ptr %0, i64 56
  %11 = load ptr, ptr %_M_invoker4.i15, align 8
  store ptr %11, ptr %_M_invoker.i3, align 8
  %12 = load ptr, ptr %_M_manager.i.i.i4, align 8
  store ptr %12, ptr %_M_manager.i.i2, align 8
  br label %invoke.cont

lpad.i8:                                          ; preds = %if.then.i6
  %13 = landingpad { ptr, i32 }
          cleanup
  %14 = load ptr, ptr %_M_manager.i.i2, align 8
  %tobool.not.i.i9 = icmp eq ptr %14, null
  br i1 %tobool.not.i.i9, label %lpad.body, label %if.then.i.i10

if.then.i.i10:                                    ; preds = %lpad.i8
  %call.i.i11 = invoke noundef zeroext i1 %14(ptr noundef nonnull align 8 dereferenceable(16) %8, ptr noundef nonnull align 8 dereferenceable(16) %8, i32 noundef 3)
          to label %lpad.body unwind label %terminate.lpad.i.i12

terminate.lpad.i.i12:                             ; preds = %if.then.i.i10
  %15 = landingpad { ptr, i32 }
          catch ptr null
  %16 = extractvalue { ptr, i32 } %15, 0
  tail call void @__clang_call_terminate(ptr %16) #20
  unreachable

invoke.cont:                                      ; preds = %invoke.cont.i14, %_ZNSt8functionIFP25dependent_expr_simplifierR11ast_managerRK10params_refR20dependent_expr_stateEEC2ERKSA_.exit
  ret void

lpad.body:                                        ; preds = %lpad.i8, %if.then.i.i10
  %17 = load ptr, ptr %_M_manager.i.i, align 8
  %tobool.not.i.i18 = icmp eq ptr %17, null
  br i1 %tobool.not.i.i18, label %common.resume, label %if.then.i.i19

if.then.i.i19:                                    ; preds = %lpad.body
  %call.i.i20 = invoke noundef zeroext i1 %17(ptr noundef nonnull align 8 dereferenceable(16) %this, ptr noundef nonnull align 8 dereferenceable(16) %this, i32 noundef 3)
          to label %common.resume unwind label %terminate.lpad.i.i21

terminate.lpad.i.i21:                             ; preds = %if.then.i.i19
  %18 = landingpad { ptr, i32 }
          catch ptr null
  %19 = extractvalue { ptr, i32 } %18, 0
  tail call void @__clang_call_terminate(ptr %19) #20
  unreachable
}